; Function Attrs: nounwind uwtable
define void @pmix_expose_param(ptr noundef %0) local_unnamed_addr #0 {
  %2 = alloca ptr, align 8
  call void @llvm.lifetime.start.p0(i64 8, ptr nonnull %2) #16
  %3 = tail call ptr @strchr(ptr noundef nonnull dereferenceable(1) %0, i32 noundef 61) #17
  store i8 0, ptr %3, align 1, !tbaa !3
  %4 = getelementptr inbounds nuw i8, ptr %3, i64 1
  %5 = call i32 (ptr, ptr, ...) @pmix_asprintf(ptr noundef nonnull %2, ptr noundef nonnull @.str.3, ptr noundef nonnull %0) #16
  %6 = load ptr, ptr %2, align 8, !tbaa !6
  %7 = call i32 @setenv(ptr noundef %6, ptr noundef nonnull %4, i32 noundef 1) #16
  %8 = load ptr, ptr %2, align 8, !tbaa !6
  call void @free(ptr noundef %8) #16
  store i8 61, ptr %3, align 1, !tbaa !3
  call void @llvm.lifetime.end.p0(i64 8, ptr nonnull %2) #16
  ret void
}